target datalayout = "e-m:e-p270:32:32-p271:32:32-p272:64:64-i64:64-i128:128-f80:128-n8:16:32:64-S128"
target triple = "x86_64-unknown-linux-gnu"

%struct.MACAddr = type { [6 x i8] }
%struct.of_dpa_flow = type { i32, i32, i32, i32, i64, %struct.of_dpa_flow_key, %struct.of_dpa_flow_key, %struct.of_dpa_flow_action, %struct.anon.13 }
%struct.of_dpa_flow_key = type { i32, i32, i32, %struct.anon, %struct.anon.0, %union.anon, i32 }
%struct.anon = type { i16, %struct.MACAddr, %struct.MACAddr, i16 }
%struct.anon.0 = type { i8, i8, i8, i8 }
%union.anon = type { %struct.anon.6 }
%struct.anon.6 = type { %struct.anon.7, i32, %struct.anon.9, %struct.anon.10 }
%struct.anon.7 = type { %struct.ipv6_addr, %struct.ipv6_addr }
%struct.ipv6_addr = type { %union.anon.8 }
%union.anon.8 = type { [4 x i32] }
%struct.anon.9 = type { i16, i16, i16 }
%struct.anon.10 = type { %struct.ipv6_addr, %struct.MACAddr, %struct.MACAddr }
%struct.of_dpa_flow_action = type { i32, %struct.anon.11, %struct.anon.12 }
%struct.anon.11 = type { i32, i32, i16 }
%struct.anon.12 = type { i16, i32, i8, i16 }
%struct.anon.13 = type { i64, i64, i64, i64, i64 }
%struct.of_dpa_flow_match = type { %struct.of_dpa_flow_key, ptr }

@.str.11 = private unnamed_addr constant [7 x i8] c"match\0A\00", align 1

; Function Attrs: nounwind sspstrong uwtable
define internal i32 @DPRINTF(ptr noundef %fmt, ...) #0 {
entry:
  %fmt.addr = alloca ptr, align 8
  store ptr %fmt, ptr %fmt.addr, align 8
  ret i32 0
}

; Function Attrs: nounwind sspstrong uwtable
define internal void @_of_dpa_flow_match(ptr noundef %key, ptr noundef %value, ptr noundef %user_data) #0 {
entry:
  %key.addr = alloca ptr, align 8
  %value.addr = alloca ptr, align 8
  %user_data.addr = alloca ptr, align 8
  %flow = alloca ptr, align 8
  %match = alloca ptr, align 8
  %k = alloca ptr, align 8
  %m = alloca ptr, align 8
  %v = alloca ptr, align 8
  %i = alloca i32, align 4
  store ptr %key, ptr %key.addr, align 8
  store ptr %value, ptr %value.addr, align 8
  store ptr %user_data, ptr %user_data.addr, align 8
  %0 = load ptr, ptr %value.addr, align 8
  store ptr %0, ptr %flow, align 8
  %1 = load ptr, ptr %user_data.addr, align 8
  store ptr %1, ptr %match, align 8
  %2 = load ptr, ptr %flow, align 8
  %key1 = getelementptr inbounds %struct.of_dpa_flow, ptr %2, i32 0, i32 5
  store ptr %key1, ptr %k, align 8
  %3 = load ptr, ptr %flow, align 8
  %mask = getelementptr inbounds %struct.of_dpa_flow, ptr %3, i32 0, i32 6
  store ptr %mask, ptr %m, align 8
  %4 = load ptr, ptr %match, align 8
  %value2 = getelementptr inbounds %struct.of_dpa_flow_match, ptr %4, i32 0, i32 0
  store ptr %value2, ptr %v, align 8
  %5 = load ptr, ptr %flow, align 8
  %key3 = getelementptr inbounds %struct.of_dpa_flow, ptr %5, i32 0, i32 5
  %tbl_id = getelementptr inbounds %struct.of_dpa_flow_key, ptr %key3, i32 0, i32 2
  %6 = load i32, ptr %tbl_id, align 8
  %7 = load ptr, ptr %match, align 8
  %value4 = getelementptr inbounds %struct.of_dpa_flow_match, ptr %7, i32 0, i32 0
  %tbl_id5 = getelementptr inbounds %struct.of_dpa_flow_key, ptr %value4, i32 0, i32 2
  %8 = load i32, ptr %tbl_id5, align 8
  %cmp = icmp eq i32 %6, %8
  br i1 %cmp, label %if.then, label %if.end

if.then:                                          ; preds = %entry
  br label %if.end

if.end:                                           ; preds = %if.then, %entry
  %9 = load ptr, ptr %flow, align 8
  %key6 = getelementptr inbounds %struct.of_dpa_flow, ptr %9, i32 0, i32 5
  %width = getelementptr inbounds %struct.of_dpa_flow_key, ptr %key6, i32 0, i32 6
  %10 = load i32, ptr %width, align 8
  %11 = load ptr, ptr %match, align 8
  %value7 = getelementptr inbounds %struct.of_dpa_flow_match, ptr %11, i32 0, i32 0
  %width8 = getelementptr inbounds %struct.of_dpa_flow_key, ptr %value7, i32 0, i32 6
  %12 = load i32, ptr %width8, align 8
  %cmp9 = icmp sgt i32 %10, %12
  br i1 %cmp9, label %if.then10, label %if.end11

if.then10:                                        ; preds = %if.end
  br label %if.end33

if.end11:                                         ; preds = %if.end
  store i32 0, ptr %i, align 4
  br label %for.cond

for.cond:                                         ; preds = %for.inc, %if.end11
  %13 = load i32, ptr %i, align 4
  %14 = load ptr, ptr %flow, align 8
  %key12 = getelementptr inbounds %struct.of_dpa_flow, ptr %14, i32 0, i32 5
  %width13 = getelementptr inbounds %struct.of_dpa_flow_key, ptr %key12, i32 0, i32 6
  %15 = load i32, ptr %width13, align 8
  %cmp14 = icmp slt i32 %13, %15
  br i1 %cmp14, label %for.body, label %for.end

for.body:                                         ; preds = %for.cond
  %16 = load ptr, ptr %k, align 8
  %17 = load i64, ptr %16, align 8
  %not = xor i64 %17, -1
  %18 = load ptr, ptr %m, align 8
  %19 = load i64, ptr %18, align 8
  %and = and i64 %not, %19
  %20 = load ptr, ptr %v, align 8
  %21 = load i64, ptr %20, align 8
  %and15 = and i64 %and, %21
  %22 = load ptr, ptr %k, align 8
  %23 = load i64, ptr %22, align 8
  %24 = load ptr, ptr %m, align 8
  %25 = load i64, ptr %24, align 8
  %and16 = and i64 %23, %25
  %26 = load ptr, ptr %v, align 8
  %27 = load i64, ptr %26, align 8
  %not17 = xor i64 %27, -1
  %and18 = and i64 %and16, %not17
  %or = or i64 %and15, %and18
  %tobool = icmp ne i64 %or, 0
  br i1 %tobool, label %if.then19, label %if.end20

if.then19:                                        ; preds = %for.body
  br label %if.end33

if.end20:                                         ; preds = %for.body
  br label %for.inc

for.inc:                                          ; preds = %if.end20
  %28 = load i32, ptr %i, align 4
  %inc = add i32 %28, 1
  store i32 %inc, ptr %i, align 4
  %29 = load ptr, ptr %k, align 8
  %incdec.ptr = getelementptr i64, ptr %29, i32 1
  store ptr %incdec.ptr, ptr %k, align 8
  %30 = load ptr, ptr %m, align 8
  %incdec.ptr21 = getelementptr i64, ptr %30, i32 1
  store ptr %incdec.ptr21, ptr %m, align 8
  %31 = load ptr, ptr %v, align 8
  %incdec.ptr22 = getelementptr i64, ptr %31, i32 1
  store ptr %incdec.ptr22, ptr %v, align 8
  br label %for.cond, !llvm.loop !10

for.end:                                          ; preds = %for.cond
  %call = call i32 (ptr, ...) @DPRINTF(ptr noundef @.str.11)
  %32 = load ptr, ptr %match, align 8
  %best = getelementptr inbounds %struct.of_dpa_flow_match, ptr %32, i32 0, i32 1
  %33 = load ptr, ptr %best, align 8
  %tobool23 = icmp ne ptr %33, null
  br i1 %tobool23, label %lor.lhs.false, label %if.then31

lor.lhs.false:                                    ; preds = %for.end
  %34 = load ptr, ptr %flow, align 8
  %priority = getelementptr inbounds %struct.of_dpa_flow, ptr %34, i32 0, i32 1
  %35 = load i32, ptr %priority, align 4
  %36 = load ptr, ptr %match, align 8
  %best24 = getelementptr inbounds %struct.of_dpa_flow_match, ptr %36, i32 0, i32 1
  %37 = load ptr, ptr %best24, align 8
  %priority25 = getelementptr inbounds %struct.of_dpa_flow, ptr %37, i32 0, i32 1
  %38 = load i32, ptr %priority25, align 4
  %cmp26 = icmp ugt i32 %35, %38
  br i1 %cmp26, label %if.then31, label %lor.lhs.false27

lor.lhs.false27:                                  ; preds = %lor.lhs.false
  %39 = load ptr, ptr %flow, align 8
  %lpm = getelementptr inbounds %struct.of_dpa_flow, ptr %39, i32 0, i32 0
  %40 = load i32, ptr %lpm, align 8
  %41 = load ptr, ptr %match, align 8
  %best28 = getelementptr inbounds %struct.of_dpa_flow_match, ptr %41, i32 0, i32 1
  %42 = load ptr, ptr %best28, align 8
  %lpm29 = getelementptr inbounds %struct.of_dpa_flow, ptr %42, i32 0, i32 0
  %43 = load i32, ptr %lpm29, align 8
  %cmp30 = icmp ugt i32 %40, %43
  br i1 %cmp30, label %if.then31, label %if.end33

if.then31:                                        ; preds = %lor.lhs.false27, %lor.lhs.false, %for.end
  %44 = load ptr, ptr %flow, align 8
  %45 = load ptr, ptr %match, align 8
  %best32 = getelementptr inbounds %struct.of_dpa_flow_match, ptr %45, i32 0, i32 1
  store ptr %44, ptr %best32, align 8
  br label %if.end33

if.end33:                                         ; preds = %if.then31, %lor.lhs.false27, %if.then19, %if.then10
  ret void
}