; Function Attrs: nofree norecurse nosync nounwind sspstrong memory(read, argmem: readwrite, inaccessiblemem: none) uwtable
define internal void @_of_dpa_flow_match(ptr readnone captures(none) %key, ptr noundef %value, ptr noundef captures(none) %user_data) #14 {
entry:
  %width = getelementptr inbounds nuw i8, ptr %value, i64 128
  %0 = load i32, ptr %width, align 8
  %width8 = getelementptr inbounds nuw i8, ptr %user_data, i64 104
  %1 = load i32, ptr %width8, align 8
  %cmp9 = icmp sgt i32 %0, %1
  br i1 %cmp9, label %if.end33, label %if.end11

if.end11:                                         ; preds = %entry
  %cmp1421 = icmp sgt i32 %0, 0
  br i1 %cmp1421, label %for.body.preheader, label %for.end

for.body.preheader:                               ; preds = %if.end11
  %mask = getelementptr inbounds nuw i8, ptr %value, i64 132
  %key1 = getelementptr inbounds nuw i8, ptr %value, i64 24
  br label %for.body

for.body:                                         ; preds = %for.body.preheader, %for.inc
  %i.025 = phi i32 [ %inc, %for.inc ], [ 0, %for.body.preheader ]
  %v.024 = phi ptr [ %incdec.ptr22, %for.inc ], [ %user_data, %for.body.preheader ]
  %m.023 = phi ptr [ %incdec.ptr21, %for.inc ], [ %mask, %for.body.preheader ]
  %k.022 = phi ptr [ %incdec.ptr, %for.inc ], [ %key1, %for.body.preheader ]
  %2 = load i64, ptr %k.022, align 8
  %not = xor i64 %2, -1
  %3 = load i64, ptr %m.023, align 8
  %and = and i64 %3, %not
  %4 = load i64, ptr %v.024, align 8
  %and15 = and i64 %and, %4
  %not17 = xor i64 %4, -1
  %5 = and i64 %2, %not17
  %and18 = and i64 %5, %3
  %or = or i64 %and18, %and15
  %tobool.not = icmp eq i64 %or, 0
  br i1 %tobool.not, label %for.inc, label %if.end33

for.inc:                                          ; preds = %for.body
  %inc = add nuw nsw i32 %i.025, 1
  %incdec.ptr = getelementptr i8, ptr %k.022, i64 8
  %incdec.ptr21 = getelementptr i8, ptr %m.023, i64 8
  %incdec.ptr22 = getelementptr i8, ptr %v.024, i64 8
  %exitcond.not = icmp eq i32 %inc, %0
  br i1 %exitcond.not, label %for.end, label %for.body, !llvm.loop !11

for.end:                                          ; preds = %for.inc, %if.end11
  %best = getelementptr inbounds nuw i8, ptr %user_data, i64 112
  %6 = load ptr, ptr %best, align 8
  %tobool23.not = icmp eq ptr %6, null
  br i1 %tobool23.not, label %if.then31, label %lor.lhs.false

lor.lhs.false:                                    ; preds = %for.end
  %priority = getelementptr inbounds nuw i8, ptr %value, i64 4
  %7 = load i32, ptr %priority, align 4
  %priority25 = getelementptr inbounds nuw i8, ptr %6, i64 4
  %8 = load i32, ptr %priority25, align 4
  %cmp26 = icmp ugt i32 %7, %8
  br i1 %cmp26, label %if.then31, label %lor.lhs.false27

lor.lhs.false27:                                  ; preds = %lor.lhs.false
  %9 = load i32, ptr %value, align 8
  %10 = load i32, ptr %6, align 8
  %cmp30 = icmp ugt i32 %9, %10
  br i1 %cmp30, label %if.then31, label %if.end33

if.then31:                                        ; preds = %lor.lhs.false27, %lor.lhs.false, %for.end
  store ptr %value, ptr %best, align 8
  br label %if.end33

if.end33:                                         ; preds = %for.body, %entry, %if.then31, %lor.lhs.false27
  ret void
}